(lp0
(itest
Picture
p1
(dp2
S'freq_diff'
p3
I0
sS'loca'
p4
S'./samples/x_0_y_1.27.jpg'
p5
sS'ptype'
p6
S'Normal 5 Light'
p7
sS'error'
p8
cnumpy.core.multiarray
scalar
p9
(cnumpy
dtype
p10
(S'f8'
p11
I0
I1
tp12
Rp13
(I3
S'<'
p14
NNNI-1
I-1
I0
tp15
bS'\x00\x90\x15i\x90Z\xc3?'
p16
tp17
Rp18
sba(itest
Picture
p19
(dp20
g3
I0
sg4
S'./samples/small_blob.jpg'
p21
sg6
g7
sg8
g9
(g13
S'@\xcc\xef:\x10"\xf9?'
p22
tp23
Rp24
sba(itest
Picture
p25
(dp26
g3
I0
sg4
S'./samples/2014-02-27--18-15-03-62.jpg'
p27
sg6
g7
sg8
g9
(g13
S'\x00\x00\x00\x00\x00\x00\x00\x00'
p28
tp29
Rp30
sba(itest
Picture
p31
(dp32
g3
I0
sg4
S'./samples/2014-02-27--18-16-34-97.jpg'
p33
sg6
g7
sg8
g9
(g13
S'\xc0\x9d\xa9\xd2\xaf5\x03@'
p34
tp35
Rp36
sba(itest
Picture
p37
(dp38
g3
I0
sg4
S'./samples/4908_CBAD.jpg'
p39
sg6
g7
sg8
g9
(g13
S'\x00\x00\x00\x00\x00\x00\x00\x00'
p40
tp41
Rp42
sba(itest
Picture
p43
(dp44
g3
I0
sg4
S'./samples/mirror1.jpg'
p45
sg6
g7
sg8
g9
(g13
S'\x00`@\xc6\x92\xe9\xb6?'
p46
tp47
Rp48
sba(itest
Picture
p49
(dp50
g3
I0
sg4
S'./samples/mirror2.jpg'
p51
sg6
g7
sg8
g9
(g13
S'\x00@)z[k\xb9?'
p52
tp53
Rp54
sba(itest
Picture
p55
(dp56
g3
I0
sg4
S'./samples/mirror3.jpg'
p57
sg6
g7
sg8
g9
(g13
S'\x00\xb0\x88\xd2\x0fi\xbc?'
p58
tp59
Rp60
sba(itest
Picture
p61
(dp62
g3
I0
sg4
S'/home/noah/lab/shed-data/vlc/angled/x_axis/-18.jpg'
p63
sg6
S'-18 deg x axis Rotation, 5 Light Source'
p64
sg8
g9
(g13
S'\x00\x00\x00\x00\x00\x00\x00\x00'
p65
tp66
Rp67
sba(itest
Picture
p68
(dp69
g3
I0
sg4
S'/home/noah/lab/shed-data/vlc/angled/x_axis/-9.jpg'
p70
sg6
S'-9 deg x axis Rotation, 5 Light Source'
p71
sg8
g9
(g13
S'\x00%\xf3\xf8\xdd\x97\xeb?'
p72
tp73
Rp74
sba(itest
Picture
p75
(dp76
g3
I0
sg4
S'/home/noah/lab/shed-data/vlc/angled/x_axis/0.jpg'
p77
sg6
S'0 deg x axis Rotation, 5 Light Source'
p78
sg8
g9
(g13
S'\x00\x00\xac\xe8z4\xc1?'
p79
tp80
Rp81
sba(itest
Picture
p82
(dp83
g3
I0
sg4
S'/home/noah/lab/shed-data/vlc/angled/x_axis/9.jpg'
p84
sg6
S'9 deg x axis Rotation, 5 Light Source'
p85
sg8
g9
(g13
S'\x00.A\xd1\x07\x1c\xee?'
p86
tp87
Rp88
sba(itest
Picture
p89
(dp90
g3
I0
sg4
S'/home/noah/lab/shed-data/vlc/angled/x_axis/18.jpg'
p91
sg6
S'18 deg x axis Rotation, 5 Light Source'
p92
sg8
g9
(g13
S'\x00\x00\x00\x00\x00\x00\x00\x00'
p93
tp94
Rp95
sba(itest
Picture
p96
(dp97
g3
I0
sg4
S'/home/noah/lab/shed-data/vlc/angled/y_axis/-27.jpg'
p98
sg6
S'-27 deg y axis Rotation, 5 Light Source'
p99
sg8
g9
(g13
S'\x00\xa0*\x11Aw\xc1?'
p100
tp101
Rp102
sba(itest
Picture
p103
(dp104
g3
I0
sg4
S'/home/noah/lab/shed-data/vlc/angled/y_axis/-18.jpg'
p105
sg6
S'-18 deg y axis Rotation, 5 Light Source'
p106
sg8
g9
(g13
S'\x00\xef\xc7\xe4NK\xe8?'
p107
tp108
Rp109
sba(itest
Picture
p110
(dp111
g3
I0
sg4
S'/home/noah/lab/shed-data/vlc/angled/y_axis/-9.jpg'
p112
sg6
S'-9 deg y axis Rotation, 5 Light Source'
p113
sg8
g9
(g13
S'\x00*,b\xa7y\xe0?'
p114
tp115
Rp116
sba(itest
Picture
p117
(dp118
g3
I0
sg4
S'/home/noah/lab/shed-data/vlc/angled/y_axis/0.jpg'
p119
sg6
S'0 deg y axis Rotation, 5 Light Source'
p120
sg8
g9
(g13
S'\x00\n\x14\xd0+\xe1\xe1?'
p121
tp122
Rp123
sba(itest
Picture
p124
(dp125
g3
I0
sg4
S'/home/noah/lab/shed-data/vlc/angled/y_axis/9.jpg'
p126
sg6
S'9 deg y axis Rotation, 5 Light Source'
p127
sg8
g9
(g13
S'\x00\x10\x8f/\x8e\xcb\xac?'
p128
tp129
Rp130
sba(itest
Picture
p131
(dp132
g3
I0
sg4
S'/home/noah/lab/shed-data/vlc/angled/y_axis/18.jpg'
p133
sg6
S'18 deg y axis Rotation, 5 Light Source'
p134
sg8
g9
(g13
S'\x00\x80g\xf6\xb4\xed\x9d?'
p135
tp136
Rp137
sba(itest
Picture
p138
(dp139
g3
I0
sg4
S'/home/noah/lab/shed-data/vlc/angled/y_axis/27.jpg'
p140
sg6
S'27 deg y axis Rotation, 5 Light Source'
p141
sg8
g9
(g13
S'\x00\x00\x00\x00\x00\x00\x00\x00'
p142
tp143
Rp144
sba(itest
Picture
p145
(dp146
g3
I0
sg4
S'/home/noah/lab/shed-data/vlc/angled/y_axis/-27.jpg'
p147
sg6
g99
sg8
g9
(g13
S'\x00\xa0*\x11Aw\xc1?'
p148
tp149
Rp150
sba(itest
Picture
p151
(dp152
g3
I0
sg4
S'/home/noah/lab/shed-data/vlc/angled/y_axis/-18.jpg'
p153
sg6
g106
sg8
g9
(g13
S'\x00\xef\xc7\xe4NK\xe8?'
p154
tp155
Rp156
sba(itest
Picture
p157
(dp158
g3
I0
sg4
S'/home/noah/lab/shed-data/vlc/angled/y_axis/-9.jpg'
p159
sg6
g113
sg8
g9
(g13
S'\x00*,b\xa7y\xe0?'
p160
tp161
Rp162
sba(itest
Picture
p163
(dp164
g3
I0
sg4
S'/home/noah/lab/shed-data/vlc/angled/y_axis/0.jpg'
p165
sg6
g120
sg8
g9
(g13
S'\x00\n\x14\xd0+\xe1\xe1?'
p166
tp167
Rp168
sba(itest
Picture
p169
(dp170
g3
I0
sg4
S'/home/noah/lab/shed-data/vlc/angled/y_axis/9.jpg'
p171
sg6
g127
sg8
g9
(g13
S'\x00\x10\x8f/\x8e\xcb\xac?'
p172
tp173
Rp174
sba(itest
Picture
p175
(dp176
g3
I0
sg4
S'/home/noah/lab/shed-data/vlc/angled/y_axis/18.jpg'
p177
sg6
g134
sg8
g9
(g13
S'\x00\x80g\xf6\xb4\xed\x9d?'
p178
tp179
Rp180
sba(itest
Picture
p181
(dp182
g3
I0
sg4
S'/home/noah/lab/shed-data/vlc/angled/y_axis/27.jpg'
p183
sg6
g141
sg8
g9
(g13
S'\x00\x00\x00\x00\x00\x00\x00\x00'
p184
tp185
Rp186
sba(itest
Picture
p187
(dp188
g3
I0
sg4
S'/home/noah/lab/box_light/full/1.jpg'
p189
sg6
S'full 4 light image close up 1,2,2.46,3 k freq'
p190
sg8
g9
(g13
S'`\x92c\x04\xe6\xfb\xf6?'
p191
tp192
Rp193
sba(itest
Picture
p194
(dp195
g3
I0
sg4
S'/home/noah/lab/box_light/full/2.jpg'
p196
sg6
g190
sg8
g9
(g13
S'\x00\xf4\xec\x0c\xfb\x82\xa5?'
p197
tp198
Rp199
sba(itest
Picture
p200
(dp201
g3
I0
sg4
S'/home/noah/lab/box_light/full/3.jpg'
p202
sg6
g190
sg8
g9
(g13
S'\x00\xd8\x8fz\x9d\xf4\x9b?'
p203
tp204
Rp205
sba(itest
Picture
p206
(dp207
g3
I0
sg4
S'/home/noah/lab/box_light/full/4.jpg'
p208
sg6
g190
sg8
g9
(g13
S'\x00\xb6\x1e>G\x89\xb0?'
p209
tp210
Rp211
sba(itest
Picture
p212
(dp213
g3
I0
sg4
S'/home/noah/lab/box_light/full/5.jpg'
p214
sg6
g190
sg8
g9
(g13
S'\x00\xbe\xed\xae$\x81\xb3?'
p215
tp216
Rp217
sba(itest
Picture
p218
(dp219
g3
I0
sg4
S'/home/noah/lab/box_light/full/6.jpg'
p220
sg6
g190
sg8
g9
(g13
S'\x00\x14\xf3\xe3i`\xaf?'
p221
tp222
Rp223
sba(itest
Picture
p224
(dp225
g3
I0
sg4
S'/home/noah/lab/box_light/full/7.jpg'
p226
sg6
g190
sg8
g9
(g13
S'\xa0\x89n\xbd\x94\x96\xff?'
p227
tp228
Rp229
sba(itest
Picture
p230
(dp231
g3
I0
sg4
S'/home/noah/lab/box_light/full/8.jpg'
p232
sg6
g190
sg8
g9
(g13
S'`\x1b\xbc:\xace\xff?'
p233
tp234
Rp235
sba(itest
Picture
p236
(dp237
g3
I0
sg4
S'/home/noah/lab/box_light/full/9.jpg'
p238
sg6
g190
sg8
g9
(g13
S'\xc0\xc9\xcfV\xc5m\xf7?'
p239
tp240
Rp241
sba(itest
Picture
p242
(dp243
g3
I0
sg4
S'/home/noah/lab/box_light/full/10.jpg'
p244
sg6
g190
sg8
g9
(g13
S'\x80\x9d\xe9}\x9c=\xf7?'
p245
tp246
Rp247
sba(itest
Picture
p248
(dp249
g3
I0
sg4
S'/home/noah/lab/box_light/full/11.jpg'
p250
sg6
g190
sg8
g9
(g13
S'\x80RgH\x88\x89\xf6?'
p251
tp252
Rp253
sba(itest
Picture
p254
(dp255
g3
I0
sg4
S'/home/noah/lab/box_light/full/12.jpg'
p256
sg6
g190
sg8
g9
(g13
S'\x80ol\x90\x19\xb8\xe5?'
p257
tp258
Rp259
sba(itest
Picture
p260
(dp261
g3
I0
sg4
S'/home/noah/lab/box_light/full/13.jpg'
p262
sg6
g190
sg8
g9
(g13
S'@\x92\xf7\xab\xf6\xa6\xf4?'
p263
tp264
Rp265
sba(itest
Picture
p266
(dp267
g3
I0
sg4
S'/home/noah/lab/box_light/full/14.jpg'
p268
sg6
g190
sg8
g9
(g13
S'\x00\x90L\xe1\xc3\xa2\xae?'
p269
tp270
Rp271
sba(itest
Picture
p272
(dp273
g3
I0
sg4
S'/home/noah/lab/box_light/full/15.jpg'
p274
sg6
g190
sg8
g9
(g13
S'\x00E\x89\xde$\x1d\xec?'
p275
tp276
Rp277
sba(itest
Picture
p278
(dp279
g3
I0
sg4
S'/home/noah/lab/box_light/full/16.jpg'
p280
sg6
g190
sg8
g9
(g13
S'\x00\x0f\x16\x91t\xbd\xf1?'
p281
tp282
Rp283
sba(itest
Picture
p284
(dp285
g3
I0
sg4
S'/home/noah/lab/box_light/full/17.jpg'
p286
sg6
g190
sg8
g9
(g13
S'\x00\x97gq~x\xf3?'
p287
tp288
Rp289
sba(itest
Picture
p290
(dp291
g3
I0
sg4
S'/home/noah/lab/box_light/full/18.jpg'
p292
sg6
g190
sg8
g9
(g13
S'@Xum\x1a\xc6\xf5?'
p293
tp294
Rp295
sba(itest
Picture
p296
(dp297
g3
I0
sg4
S'/home/noah/lab/box_light/full/19.jpg'
p298
sg6
g190
sg8
g9
(g13
S'\x80D\x08"\x98\xca\xef?'
p299
tp300
Rp301
sba.