(lp0
(itest
Picture
p1
(dp2
S'freq_diff'
p3
I0
sS'loca'
p4
S'/home/noah/lab/box_light/full/1.jpg'
p5
sS'ptype'
p6
S'full 4 light image close up 1,2,2.46,3 k freq'
p7
sS'error'
p8
cnumpy.core.multiarray
scalar
p9
(cnumpy
dtype
p10
(S'f8'
p11
I0
I1
tp12
Rp13
(I3
S'<'
p14
NNNI-1
I-1
I0
tp15
bS'\x00\xc0=&6\xc3\x8f?'
p16
tp17
Rp18
sba(itest
Picture
p19
(dp20
g3
I0
sg4
S'/home/noah/lab/box_light/full/2.jpg'
p21
sg6
g7
sg8
g9
(g13
S'\x00@\xd2.\xedQ\x9f?'
p22
tp23
Rp24
sba(itest
Picture
p25
(dp26
g3
I0
sg4
S'/home/noah/lab/box_light/full/3.jpg'
p27
sg6
g7
sg8
g9
(g13
S'\x00\xa86\x9dY\xa7\xa7?'
p28
tp29
Rp30
sba(itest
Picture
p31
(dp32
g3
I0
sg4
S'/home/noah/lab/box_light/full/4.jpg'
p33
sg6
g7
sg8
g9
(g13
S'\x00(\xf9\xad#\x8f\xa0?'
p34
tp35
Rp36
sba(itest
Picture
p37
(dp38
g3
I0
sg4
S'/home/noah/lab/box_light/full/5.jpg'
p39
sg6
g7
sg8
g9
(g13
S'\x00\x82=1k\xff\xc3?'
p40
tp41
Rp42
sba(itest
Picture
p43
(dp44
g3
I0
sg4
S'/home/noah/lab/box_light/full/6.jpg'
p45
sg6
g7
sg8
g9
(g13
S'\x00|dB$I\xc5?'
p46
tp47
Rp48
sba(itest
Picture
p49
(dp50
g3
I0
sg4
S'/home/noah/lab/box_light/full/7.jpg'
p51
sg6
g7
sg8
g9
(g13
S'\x00\xf8\xbca\xaf\xfc\xae?'
p52
tp53
Rp54
sba(itest
Picture
p55
(dp56
g3
I0
sg4
S'/home/noah/lab/box_light/full/8.jpg'
p57
sg6
g7
sg8
g9
(g13
S'\x00\xb8\xe1\xc8Ig\xac?'
p58
tp59
Rp60
sba(itest
Picture
p61
(dp62
g3
I0
sg4
S'/home/noah/lab/box_light/full/9.jpg'
p63
sg6
g7
sg8
g9
(g13
S'\x000\xc8/,\x91\xa2?'
p64
tp65
Rp66
sba(itest
Picture
p67
(dp68
g3
I0
sg4
S'/home/noah/lab/box_light/full/10.jpg'
p69
sg6
g7
sg8
g9
(g13
S'\x00\x00\xb0\xc0\xc6g9?'
p70
tp71
Rp72
sba(itest
Picture
p73
(dp74
g3
I0
sg4
S'/home/noah/lab/box_light/full/11.jpg'
p75
sg6
g7
sg8
g9
(g13
S'\x00<:\xfc\xa2+\xb7?'
p76
tp77
Rp78
sba(itest
Picture
p79
(dp80
g3
I0
sg4
S'/home/noah/lab/box_light/full/12.jpg'
p81
sg6
g7
sg8
g9
(g13
S'\x00\x80a\x88\x0f1{?'
p82
tp83
Rp84
sba(itest
Picture
p85
(dp86
g3
I0
sg4
S'/home/noah/lab/box_light/full/13.jpg'
p87
sg6
g7
sg8
g9
(g13
S'\x00\x00\x00\x00\x00\x00 ='
p88
tp89
Rp90
sba(itest
Picture
p91
(dp92
g3
I0
sg4
S'/home/noah/lab/box_light/full/14.jpg'
p93
sg6
g7
sg8
g9
(g13
S'\x00\x00\x00\x00\x00\x00\x00\x00'
p94
tp95
Rp96
sba(itest
Picture
p97
(dp98
g3
I0
sg4
S'/home/noah/lab/box_light/full/15.jpg'
p99
sg6
g7
sg8
g9
(g13
S'\x00\x1f1<v\xcb\xe0?'
p100
tp101
Rp102
sba(itest
Picture
p103
(dp104
g3
I0
sg4
S'/home/noah/lab/box_light/full/16.jpg'
p105
sg6
g7
sg8
g9
(g13
S'\x00\x10M\x10\xea\xe2\xb4?'
p106
tp107
Rp108
sba(itest
Picture
p109
(dp110
g3
I0
sg4
S'/home/noah/lab/box_light/full/17.jpg'
p111
sg6
g7
sg8
g9
(g13
S'\x00\xc05>\xefY\xa3?'
p112
tp113
Rp114
sba(itest
Picture
p115
(dp116
g3
I0
sg4
S'/home/noah/lab/box_light/full/18.jpg'
p117
sg6
g7
sg8
g9
(g13
S'\x00\xd8\x04b\x9a\xfd\xb1?'
p118
tp119
Rp120
sba(itest
Picture
p121
(dp122
g3
I0
sg4
S'/home/noah/lab/box_light/full/19.jpg'
p123
sg6
g7
sg8
g9
(g13
S'\x00\x00\x00\x00\x00\x00\x00\x00'
p124
tp125
Rp126
sba.