(lp0
(itest
Picture
p1
(dp2
S'freq_diff'
p3
cnumpy.core.multiarray
_reconstruct
p4
(cnumpy
ndarray
p5
(I0
tp6
S'b'
p7
tp8
Rp9
(I1
(I1
tp10
cnumpy
dtype
p11
(S'f8'
p12
I0
I1
tp13
Rp14
(I3
S'<'
p15
NNNI-1
I-1
I0
tp16
bI00
S'\x00\x00\x00\x00\x00^5@'
p17
tp18
bsS'loca'
p19
S'/home/noah/lab/vlc-localization/processing/shed-data/vlc/back_camera/distance/TX1K/0.5m/0.5m_1.jpg'
p20
sS'ptype'
p21
S'TX1K, .5m, 1 Light Source'
p22
sS'error'
p23
I0
sba(itest
Picture
p24
(dp25
g3
g4
(g5
(I0
tp26
g7
tp27
Rp28
(I1
(I1
tp29
g14
I00
S'\x00\x00\x00\x00\x00^5@'
p30
tp31
bsg19
S'/home/noah/lab/vlc-localization/processing/shed-data/vlc/back_camera/distance/TX1K/0.5m/0.5m_2.jpg'
p32
sg21
g22
sg23
I0
sba(itest
Picture
p33
(dp34
g3
g4
(g5
(I0
tp35
g7
tp36
Rp37
(I1
(I1
tp38
g14
I00
S'\x00\x00\x00\x00\x00^5@'
p39
tp40
bsg19
S'/home/noah/lab/vlc-localization/processing/shed-data/vlc/back_camera/distance/TX1K/0.5m/0.5m_3.jpg'
p41
sg21
g22
sg23
I0
sba(itest
Picture
p42
(dp43
g3
g4
(g5
(I0
tp44
g7
tp45
Rp46
(I1
(I1
tp47
g14
I00
S'\x00\x00\x00\x00\x00^5@'
p48
tp49
bsg19
S'/home/noah/lab/vlc-localization/processing/shed-data/vlc/back_camera/distance/TX1K/0.5m/0.5m_4.jpg'
p50
sg21
g22
sg23
I0
sba(itest
Picture
p51
(dp52
g3
g4
(g5
(I0
tp53
g7
tp54
Rp55
(I1
(I1
tp56
g14
I00
S'\x00\x00\x00\x00\x00^5@'
p57
tp58
bsg19
S'/home/noah/lab/vlc-localization/processing/shed-data/vlc/back_camera/distance/TX1K/0.5m/0.5m_5.jpg'
p59
sg21
g22
sg23
I0
sba(itest
Picture
p60
(dp61
g3
g4
(g5
(I0
tp62
g7
tp63
Rp64
(I1
(I1
tp65
g14
I00
S'\x00\x00\x00\x00\x00^5@'
p66
tp67
bsg19
S'/home/noah/lab/vlc-localization/processing/shed-data/vlc/back_camera/distance/TX1K/0.5m/0.5m_6.jpg'
p68
sg21
g22
sg23
I0
sba(itest
Picture
p69
(dp70
g3
g4
(g5
(I0
tp71
g7
tp72
Rp73
(I1
(I1
tp74
g14
I00
S'\x00\x00\x00\x00\x00\x0f9\xc0'
p75
tp76
bsg19
S'/home/noah/lab/vlc-localization/processing/shed-data/vlc/back_camera/distance/TX1K/0.5m/0.5m_7.jpg'
p77
sg21
g22
sg23
I0
sba(itest
Picture
p78
(dp79
g3
g4
(g5
(I0
tp80
g7
tp81
Rp82
(I1
(I1
tp83
g14
I00
S'\x00\x00\x00\x00\x00^5@'
p84
tp85
bsg19
S'/home/noah/lab/vlc-localization/processing/shed-data/vlc/back_camera/distance/TX1K/0.5m/0.5m_8.jpg'
p86
sg21
g22
sg23
I0
sba(itest
Picture
p87
(dp88
g3
g4
(g5
(I0
tp89
g7
tp90
Rp91
(I1
(I1
tp92
g14
I00
S'\x00\x00\x00\x00\x00\x0f9\xc0'
p93
tp94
bsg19
S'/home/noah/lab/vlc-localization/processing/shed-data/vlc/back_camera/distance/TX1K/0.5m/0.5m_9.jpg'
p95
sg21
g22
sg23
I0
sba(itest
Picture
p96
(dp97
g3
g4
(g5
(I0
tp98
g7
tp99
Rp100
(I1
(I1
tp101
g14
I00
S'\x00\x00\x00\x00\xc0\xf2P@'
p102
tp103
bsg19
S'/home/noah/lab/vlc-localization/processing/shed-data/vlc/back_camera/distance/TX1K/1m/1m_1.jpg'
p104
sg21
S'TX1K, 1m, 1 Light Source'
p105
sg23
I0
sba(itest
Picture
p106
(dp107
g3
g4
(g5
(I0
tp108
g7
tp109
Rp110
(I1
(I1
tp111
g14
I00
S'\x00\x00\x00\x00\xc0\xf2P@'
p112
tp113
bsg19
S'/home/noah/lab/vlc-localization/processing/shed-data/vlc/back_camera/distance/TX1K/1m/1m_2.jpg'
p114
sg21
g105
sg23
I0
sba(itest
Picture
p115
(dp116
g3
g4
(g5
(I0
tp117
g7
tp118
Rp119
(I1
(I1
tp120
g14
I00
S'\x00\x00\x00\x00\xc0\xf2P@'
p121
tp122
bsg19
S'/home/noah/lab/vlc-localization/processing/shed-data/vlc/back_camera/distance/TX1K/1m/1m_3.jpg'
p123
sg21
g105
sg23
I0
sba(itest
Picture
p124
(dp125
g3
g4
(g5
(I0
tp126
g7
tp127
Rp128
(I1
(I1
tp129
g14
I00
S'\x00\x00\x00\x00\x00^5@'
p130
tp131
bsg19
S'/home/noah/lab/vlc-localization/processing/shed-data/vlc/back_camera/distance/TX1K/1m/1m_4.jpg'
p132
sg21
g105
sg23
I0
sba(itest
Picture
p133
(dp134
g3
g4
(g5
(I0
tp135
g7
tp136
Rp137
(I1
(I1
tp138
g14
I00
S'\x00\x00\x00\x00\xc0\xf2P@'
p139
tp140
bsg19
S'/home/noah/lab/vlc-localization/processing/shed-data/vlc/back_camera/distance/TX1K/1m/1m_5.jpg'
p141
sg21
g105
sg23
I0
sba(itest
Picture
p142
(dp143
g3
g4
(g5
(I0
tp144
g7
tp145
Rp146
(I1
(I1
tp147
g14
I00
S'\x00\x00\x00\x00\x00^5@'
p148
tp149
bsg19
S'/home/noah/lab/vlc-localization/processing/shed-data/vlc/back_camera/distance/TX1K/1m/1m_6.jpg'
p150
sg21
g105
sg23
I0
sba(itest
Picture
p151
(dp152
g3
g4
(g5
(I0
tp153
g7
tp154
Rp155
(I1
(I1
tp156
g14
I00
S'\x00\x00\x00\x00\xc0\xf2P@'
p157
tp158
bsg19
S'/home/noah/lab/vlc-localization/processing/shed-data/vlc/back_camera/distance/TX1K/1m/1m_7.jpg'
p159
sg21
g105
sg23
I0
sba(itest
Picture
p160
(dp161
g3
g4
(g5
(I0
tp162
g7
tp163
Rp164
(I1
(I1
tp165
g14
I00
S'\x00\x00\x00\x00\x00^5@'
p166
tp167
bsg19
S'/home/noah/lab/vlc-localization/processing/shed-data/vlc/back_camera/distance/TX1K/1m/1m_8.jpg'
p168
sg21
g105
sg23
I0
sba(itest
Picture
p169
(dp170
g3
g4
(g5
(I0
tp171
g7
tp172
Rp173
(I1
(I1
tp174
g14
I00
S'\x00\x00\x00\x00\x00^5@'
p175
tp176
bsg19
S'/home/noah/lab/vlc-localization/processing/shed-data/vlc/back_camera/distance/TX1K/1m/1m_9.jpg'
p177
sg21
g105
sg23
I0
sba(itest
Picture
p178
(dp179
g3
g4
(g5
(I0
tp180
g7
tp181
Rp182
(I1
(I1
tp183
g14
I00
S'\x00\x00\x00\x00\x00^5@'
p184
tp185
bsg19
S'/home/noah/lab/vlc-localization/processing/shed-data/vlc/back_camera/distance/TX1K/1.5m/1.5m_1.jpg'
p186
sg21
S'TX1K, 1.5m, 1 Light Source'
p187
sg23
I0
sba(itest
Picture
p188
(dp189
g3
g4
(g5
(I0
tp190
g7
tp191
Rp192
(I1
(I1
tp193
g14
I00
S'\x00\x00\x00\x00\x00\xdfQ\xc0'
p194
tp195
bsg19
S'/home/noah/lab/vlc-localization/processing/shed-data/vlc/back_camera/distance/TX1K/1.5m/1.5m_2.jpg'
p196
sg21
g187
sg23
I0
sba(itest
Picture
p197
(dp198
g3
g4
(g5
(I0
tp199
g7
tp200
Rp201
(I1
(I1
tp202
g14
I00
S'\x00\x00\x00\x00\xc0\xf2P@'
p203
tp204
bsg19
S'/home/noah/lab/vlc-localization/processing/shed-data/vlc/back_camera/distance/TX1K/1.5m/1.5m_3.jpg'
p205
sg21
g187
sg23
I0
sba(itest
Picture
p206
(dp207
g3
g4
(g5
(I0
tp208
g7
tp209
Rp210
(I1
(I1
tp211
g14
I00
S'\x00\x00\x00\x00\x00^5@'
p212
tp213
bsg19
S'/home/noah/lab/vlc-localization/processing/shed-data/vlc/back_camera/distance/TX1K/1.5m/1.5m_4.jpg'
p214
sg21
g187
sg23
I0
sba(itest
Picture
p215
(dp216
g3
g4
(g5
(I0
tp217
g7
tp218
Rp219
(I1
(I1
tp220
g14
I00
S'\x00\x00\x00\x00\xc0\xf2P@'
p221
tp222
bsg19
S'/home/noah/lab/vlc-localization/processing/shed-data/vlc/back_camera/distance/TX1K/1.5m/1.5m_5.jpg'
p223
sg21
g187
sg23
I0
sba(itest
Picture
p224
(dp225
g3
g4
(g5
(I0
tp226
g7
tp227
Rp228
(I1
(I1
tp229
g14
I00
S'\x00\x00\x00\x00\xc0\xf2P@'
p230
tp231
bsg19
S'/home/noah/lab/vlc-localization/processing/shed-data/vlc/back_camera/distance/TX1K/1.5m/1.5m_6.jpg'
p232
sg21
g187
sg23
I0
sba(itest
Picture
p233
(dp234
g3
g4
(g5
(I0
tp235
g7
tp236
Rp237
(I1
(I1
tp238
g14
I00
S'\x00\x00\x00\x00\xc0\xf2P@'
p239
tp240
bsg19
S'/home/noah/lab/vlc-localization/processing/shed-data/vlc/back_camera/distance/TX1K/1.5m/1.5m_7.jpg'
p241
sg21
g187
sg23
I0
sba(itest
Picture
p242
(dp243
g3
g4
(g5
(I0
tp244
g7
tp245
Rp246
(I1
(I1
tp247
g14
I00
S'\x00\x00\x00\x00\x00\x8e\\@'
p248
tp249
bsg19
S'/home/noah/lab/vlc-localization/processing/shed-data/vlc/back_camera/distance/TX1K/1.5m/1.5m_8.jpg'
p250
sg21
g187
sg23
I0
sba(itest
Picture
p251
(dp252
g3
g4
(g5
(I0
tp253
g7
tp254
Rp255
(I1
(I1
tp256
g14
I00
S'\x00\x00\x00\x00\xc0\xf2P@'
p257
tp258
bsg19
S'/home/noah/lab/vlc-localization/processing/shed-data/vlc/back_camera/distance/TX1K/1.5m/1.5m_9.jpg'
p259
sg21
g187
sg23
I0
sba(itest
Picture
p260
(dp261
g3
g4
(g5
(I0
tp262
g7
tp263
Rp264
(I1
(I1
tp265
g14
I00
S'\x00\x00\x00\x00\x00^5@'
p266
tp267
bsg19
S'/home/noah/lab/vlc-localization/processing/shed-data/vlc/back_camera/distance/TX1K/2m/2m_1.jpg'
p268
sg21
S'TX1K, 2m, 1 Light Source'
p269
sg23
I0
sba(itest
Picture
p270
(dp271
g3
g4
(g5
(I0
tp272
g7
tp273
Rp274
(I1
(I1
tp275
g14
I00
S'\x00\x00\x00\x00\x00\xdfQ\xc0'
p276
tp277
bsg19
S'/home/noah/lab/vlc-localization/processing/shed-data/vlc/back_camera/distance/TX1K/2m/2m_2.jpg'
p278
sg21
g269
sg23
I0
sba(itest
Picture
p279
(dp280
g3
g4
(g5
(I0
tp281
g7
tp282
Rp283
(I1
(I1
tp284
g14
I00
S'\x00\x00\x00\x00@z]\xc0'
p285
tp286
bsg19
S'/home/noah/lab/vlc-localization/processing/shed-data/vlc/back_camera/distance/TX1K/2m/2m_3.jpg'
p287
sg21
g269
sg23
I0
sba(itest
Picture
p288
(dp289
g3
g4
(g5
(I0
tp290
g7
tp291
Rp292
(I1
(I1
tp293
g14
I00
S'\x00\x00\x00\x00\xc0\xf2P@'
p294
tp295
bsg19
S'/home/noah/lab/vlc-localization/processing/shed-data/vlc/back_camera/distance/TX1K/2m/2m_4.jpg'
p296
sg21
g269
sg23
I0
sba(itest
Picture
p297
(dp298
g3
g4
(g5
(I0
tp299
g7
tp300
Rp301
(I1
(I1
tp302
g14
I00
S'\x00\x00\x00\x00\x00^5@'
p303
tp304
bsg19
S'/home/noah/lab/vlc-localization/processing/shed-data/vlc/back_camera/distance/TX1K/2m/2m_5.jpg'
p305
sg21
g269
sg23
I0
sba(itest
Picture
p306
(dp307
g3
g4
(g5
(I0
tp308
g7
tp309
Rp310
(I1
(I1
tp311
g14
I00
S'\x00\x00\x00\x00\xc0\xf2P@'
p312
tp313
bsg19
S'/home/noah/lab/vlc-localization/processing/shed-data/vlc/back_camera/distance/TX1K/2m/2m_6.jpg'
p314
sg21
g269
sg23
I0
sba(itest
Picture
p315
(dp316
g3
g4
(g5
(I0
tp317
g7
tp318
Rp319
(I1
(I1
tp320
g14
I00
S'\x00\x00\x00\x00\x00\x0f9\xc0'
p321
tp322
bsg19
S'/home/noah/lab/vlc-localization/processing/shed-data/vlc/back_camera/distance/TX1K/2m/2m_7.jpg'
p323
sg21
g269
sg23
I0
sba(itest
Picture
p324
(dp325
g3
g4
(g5
(I0
tp326
g7
tp327
Rp328
(I1
(I1
tp329
g14
I00
S'\x00\x00\x00\x00\x00\xdfQ\xc0'
p330
tp331
bsg19
S'/home/noah/lab/vlc-localization/processing/shed-data/vlc/back_camera/distance/TX1K/2m/2m_8.jpg'
p332
sg21
g269
sg23
I0
sba(itest
Picture
p333
(dp334
g3
g4
(g5
(I0
tp335
g7
tp336
Rp337
(I1
(I1
tp338
g14
I00
S'\x00\x00\x00\x00\x00\x8e\\@'
p339
tp340
bsg19
S'/home/noah/lab/vlc-localization/processing/shed-data/vlc/back_camera/distance/TX1K/2m/2m_9.jpg'
p341
sg21
g269
sg23
I0
sba(itest
Picture
p342
(dp343
g3
g4
(g5
(I0
tp344
g7
tp345
Rp346
(I1
(I1
tp347
g14
I00
S'\x00\x00\x00\x00\x00^5@'
p348
tp349
bsg19
S'/home/noah/lab/vlc-localization/processing/shed-data/vlc/back_camera/distance/TX1K/2.5m/2.5m_1.jpg'
p350
sg21
S'TX1K, 2.5m, 1 Light Source'
p351
sg23
I0
sba(itest
Picture
p352
(dp353
g3
g4
(g5
(I0
tp354
g7
tp355
Rp356
(I1
(I1
tp357
g14
I00
S'\x00\x00\x00\x00\x00\x0f9\xc0'
p358
tp359
bsg19
S'/home/noah/lab/vlc-localization/processing/shed-data/vlc/back_camera/distance/TX1K/2.5m/2.5m_2.jpg'
p360
sg21
g351
sg23
I0
sba(itest
Picture
p361
(dp362
g3
g4
(g5
(I0
tp363
g7
tp364
Rp365
(I1
(I1
tp366
g14
I00
S'\x00\x00\x00\x00\x98Y\x9d@'
p367
tp368
bsg19
S'/home/noah/lab/vlc-localization/processing/shed-data/vlc/back_camera/distance/TX1K/2.5m/2.5m_3.jpg'
p369
sg21
g351
sg23
I0
sba(itest
Picture
p370
(dp371
g3
g4
(g5
(I0
tp372
g7
tp373
Rp374
(I1
(I1
tp375
g14
I00
S'\x00\x00\x00\x00\xc0\xf2P@'
p376
tp377
bsg19
S'/home/noah/lab/vlc-localization/processing/shed-data/vlc/back_camera/distance/TX1K/2.5m/2.5m_4.jpg'
p378
sg21
g351
sg23
I0
sba(itest
Picture
p379
(dp380
g3
g4
(g5
(I0
tp381
g7
tp382
Rp383
(I1
(I1
tp384
g14
I00
S'\x00\x00\x00\x00\x98Y\x9d@'
p385
tp386
bsg19
S'/home/noah/lab/vlc-localization/processing/shed-data/vlc/back_camera/distance/TX1K/2.5m/2.5m_5.jpg'
p387
sg21
g351
sg23
I0
sba(itest
Picture
p388
(dp389
g3
g4
(g5
(I0
tp390
g7
tp391
Rp392
(I1
(I1
tp393
g14
I00
S'\x00\x00\x00\x00\x00\x8e\\@'
p394
tp395
bsg19
S'/home/noah/lab/vlc-localization/processing/shed-data/vlc/back_camera/distance/TX1K/2.5m/2.5m_6.jpg'
p396
sg21
g351
sg23
I0
sba(itest
Picture
p397
(dp398
g3
g4
(g5
(I0
tp399
g7
tp400
Rp401
(I1
(I1
tp402
g14
I00
S'\x00\x00\x00\x00\x00\x8e\\@'
p403
tp404
bsg19
S'/home/noah/lab/vlc-localization/processing/shed-data/vlc/back_camera/distance/TX1K/2.5m/2.5m_7.jpg'
p405
sg21
g351
sg23
I0
sba(itest
Picture
p406
(dp407
g3
g4
(g5
(I0
tp408
g7
tp409
Rp410
(I1
(I1
tp411
g14
I00
S'\x00\x00\x00\x000\xe6\x9b@'
p412
tp413
bsg19
S'/home/noah/lab/vlc-localization/processing/shed-data/vlc/back_camera/distance/TX1K/2.5m/2.5m_8.jpg'
p414
sg21
g351
sg23
I0
sba(itest
Picture
p415
(dp416
g3
g4
(g5
(I0
tp417
g7
tp418
Rp419
(I1
(I1
tp420
g14
I00
S'\x00\x00\x00\x00\x88\xa7\xa6@'
p421
tp422
bsg19
S'/home/noah/lab/vlc-localization/processing/shed-data/vlc/back_camera/distance/TX1K/2.5m/2.5m_9.jpg'
p423
sg21
g351
sg23
I0
sba(itest
Picture
p424
(dp425
g3
g4
(g5
(I0
tp426
g7
tp427
Rp428
(I1
(I1
tp429
g14
I00
S'\x00\x00\x00\x00\x00\x8e\\@'
p430
tp431
bsg19
S'/home/noah/lab/vlc-localization/processing/shed-data/vlc/back_camera/distance/TX1K/3m/3m_1.jpg'
p432
sg21
S'TX1K, 3m, 1 Light Source'
p433
sg23
I0
sba(itest
Picture
p434
(dp435
g3
g4
(g5
(I0
tp436
g7
tp437
Rp438
(I1
(I1
tp439
g14
I00
S'\x00\x00\x00\x00`\x8cx@'
p440
tp441
bsg19
S'/home/noah/lab/vlc-localization/processing/shed-data/vlc/back_camera/distance/TX1K/3m/3m_2.jpg'
p442
sg21
g433
sg23
I0
sba(itest
Picture
p443
(dp444
g3
g4
(g5
(I0
tp445
g7
tp446
Rp447
(I1
(I1
tp448
g14
I00
S'\x00\x00\x00\x00\x00^5@'
p449
tp450
bsg19
S'/home/noah/lab/vlc-localization/processing/shed-data/vlc/back_camera/distance/TX1K/3m/3m_3.jpg'
p451
sg21
g433
sg23
I0
sba(itest
Picture
p452
(dp453
g3
g4
(g5
(I0
tp454
g7
tp455
Rp456
(I1
(I1
tp457
g14
I00
S'\x00\x00\x00\x00\xc8r\x9a@'
p458
tp459
bsg19
S'/home/noah/lab/vlc-localization/processing/shed-data/vlc/back_camera/distance/TX1K/3m/3m_5.jpg'
p460
sg21
g433
sg23
I0
sba(itest
Picture
p461
(dp462
g3
g4
(g5
(I0
tp463
g7
tp464
Rp465
(I1
(I1
tp466
g14
I00
S'\x00\x00\x00\x00\x98Y\x9d@'
p467
tp468
bsg19
S'/home/noah/lab/vlc-localization/processing/shed-data/vlc/back_camera/distance/TX1K/3m/3m_8.jpg'
p469
sg21
g433
sg23
I0
sba(itest
Picture
p470
(dp471
g3
g4
(g5
(I0
tp472
g7
tp473
Rp474
(I1
(I1
tp475
g14
I00
S'\x00\x00\x00\x000\xe6\x9b@'
p476
tp477
bsg19
S'/home/noah/lab/vlc-localization/processing/shed-data/vlc/back_camera/distance/TX1K/3m/3m_9.jpg'
p478
sg21
g433
sg23
I0
sba(itest
Picture
p479
(dp480
g3
g4
(g5
(I0
tp481
g7
tp482
Rp483
(I1
(I1
tp484
g14
I00
S'\x00\x00\x00\x00`\xff\x98@'
p485
tp486
bsg19
S'/home/noah/lab/vlc-localization/processing/shed-data/vlc/back_camera/distance/TX1K/3.5m/3.5m_1.jpg'
p487
sg21
S'TX1K, 3.5m, 1 Light Source'
p488
sg23
I0
sba(itest
Picture
p489
(dp490
g3
g4
(g5
(I0
tp491
g7
tp492
Rp493
(I1
(I1
tp494
g14
I00
S'\x00\x00\x00\x00\xc0\xf2P@'
p495
tp496
bsg19
S'/home/noah/lab/vlc-localization/processing/shed-data/vlc/back_camera/distance/TX1K/3.5m/3.5m_2.jpg'
p497
sg21
g488
sg23
I0
sba(itest
Picture
p498
(dp499
g3
g4
(g5
(I0
tp500
g7
tp501
Rp502
(I1
(I1
tp503
g14
I00
S'\x00\x00\x00\x00\xb6\x8b\xad@'
p504
tp505
bsg19
S'/home/noah/lab/vlc-localization/processing/shed-data/vlc/back_camera/distance/TX1K/3.5m/3.5m_3.jpg'
p506
sg21
g488
sg23
I0
sba(itest
Picture
p507
(dp508
g3
g4
(g5
(I0
tp509
g7
tp510
Rp511
(I1
(I1
tp512
g14
I00
S'\x00\x00\x00\x00\xc8r\x9a@'
p513
tp514
bsg19
S'/home/noah/lab/vlc-localization/processing/shed-data/vlc/back_camera/distance/TX1K/3.5m/3.5m_4.jpg'
p515
sg21
g488
sg23
I0
sba(itest
Picture
p516
(dp517
g3
g4
(g5
(I0
tp518
g7
tp519
Rp520
(I1
(I1
tp521
g14
I00
S'\x00\x00\x00\x00\xc26\xa1@'
p522
tp523
bsg19
S'/home/noah/lab/vlc-localization/processing/shed-data/vlc/back_camera/distance/TX1K/3.5m/3.5m_6.jpg'
p524
sg21
g488
sg23
I0
sba(itest
Picture
p525
(dp526
g3
g4
(g5
(I0
tp527
g7
tp528
Rp529
(I1
(I1
tp530
g14
I00
S'\x00\x00\x00\x00\xc0\xf2P@'
p531
tp532
bsg19
S'/home/noah/lab/vlc-localization/processing/shed-data/vlc/back_camera/distance/TX1K/3.5m/3.5m_7.jpg'
p533
sg21
g488
sg23
I0
sba(itest
Picture
p534
(dp535
g3
g4
(g5
(I0
tp536
g7
tp537
Rp538
(I1
(I1
tp539
g14
I00
S'\x00\x00\x00\x00\xe4\x9f\x9c@'
p540
tp541
bsg19
S'/home/noah/lab/vlc-localization/processing/shed-data/vlc/back_camera/distance/TX1K/3.5m/3.5m_8.jpg'
p542
sg21
g488
sg23
I0
sba(itest
Picture
p543
(dp544
g3
g4
(g5
(I0
tp545
g7
tp546
Rp547
(I1
(I1
tp548
g14
I00
S'\x00\x00\x00\x00~1\xa9@'
p549
tp550
bsg19
S'/home/noah/lab/vlc-localization/processing/shed-data/vlc/back_camera/distance/TX1K/3.5m/3.5m_9.jpg'
p551
sg21
g488
sg23
I0
sba(itest
Picture
p552
(dp553
g3
g4
(g5
(I0
tp554
g7
tp555
Rp556
(I1
(I1
tp557
g14
I00
S'\x00\x00\x00\x00\x00\xad1@'
p558
tp559
bsg19
S'/home/noah/lab/vlc-localization/processing/shed-data/vlc/back_camera/distance/TX3K/0.5m/0.5m_1.jpg'
p560
sg21
S'TX3K, .5m, 1 Light Source'
p561
sg23
I0
sba(itest
Picture
p562
(dp563
g3
g4
(g5
(I0
tp564
g7
tp565
Rp566
(I1
(I1
tp567
g14
I00
S'\x00\x00\x00\x00\x00\xad1@'
p568
tp569
bsg19
S'/home/noah/lab/vlc-localization/processing/shed-data/vlc/back_camera/distance/TX3K/0.5m/0.5m_2.jpg'
p570
sg21
g561
sg23
I0
sba(itest
Picture
p571
(dp572
g3
g4
(g5
(I0
tp573
g7
tp574
Rp575
(I1
(I1
tp576
g14
I00
S'\x00\x00\x00\x00\x00\xad1@'
p577
tp578
bsg19
S'/home/noah/lab/vlc-localization/processing/shed-data/vlc/back_camera/distance/TX3K/0.5m/0.5m_3.jpg'
p579
sg21
g561
sg23
I0
sba(itest
Picture
p580
(dp581
g3
g4
(g5
(I0
tp582
g7
tp583
Rp584
(I1
(I1
tp585
g14
I00
S'\x00\x00\x00\x00\x00\xad1@'
p586
tp587
bsg19
S'/home/noah/lab/vlc-localization/processing/shed-data/vlc/back_camera/distance/TX3K/0.5m/0.5m_4.jpg'
p588
sg21
g561
sg23
I0
sba(itest
Picture
p589
(dp590
g3
g4
(g5
(I0
tp591
g7
tp592
Rp593
(I1
(I1
tp594
g14
I00
S'\x00\x00\x00\x00\x00\xad1@'
p595
tp596
bsg19
S'/home/noah/lab/vlc-localization/processing/shed-data/vlc/back_camera/distance/TX3K/0.5m/0.5m_5.jpg'
p597
sg21
g561
sg23
I0
sba(itest
Picture
p598
(dp599
g3
g4
(g5
(I0
tp600
g7
tp601
Rp602
(I1
(I1
tp603
g14
I00
S'\x00\x00\x00\x00\x00\xad1@'
p604
tp605
bsg19
S'/home/noah/lab/vlc-localization/processing/shed-data/vlc/back_camera/distance/TX3K/0.5m/0.5m_6.jpg'
p606
sg21
g561
sg23
I0
sba(itest
Picture
p607
(dp608
g3
g4
(g5
(I0
tp609
g7
tp610
Rp611
(I1
(I1
tp612
g14
I00
S'\x00\x00\x00\x00\x00\xc0<\xc0'
p613
tp614
bsg19
S'/home/noah/lab/vlc-localization/processing/shed-data/vlc/back_camera/distance/TX3K/0.5m/0.5m_7.jpg'
p615
sg21
g561
sg23
I0
sba(itest
Picture
p616
(dp617
g3
g4
(g5
(I0
tp618
g7
tp619
Rp620
(I1
(I1
tp621
g14
I00
S'\x00\x00\x00\x00\x00\xad1@'
p622
tp623
bsg19
S'/home/noah/lab/vlc-localization/processing/shed-data/vlc/back_camera/distance/TX3K/0.5m/0.5m_8.jpg'
p624
sg21
g561
sg23
I0
sba(itest
Picture
p625
(dp626
g3
g4
(g5
(I0
tp627
g7
tp628
Rp629
(I1
(I1
tp630
g14
I00
S'\x00\x00\x00\x00\x00\xc0<\xc0'
p631
tp632
bsg19
S'/home/noah/lab/vlc-localization/processing/shed-data/vlc/back_camera/distance/TX3K/0.5m/0.5m_9.jpg'
p633
sg21
g561
sg23
I0
sba(itest
Picture
p634
(dp635
g3
g4
(g5
(I0
tp636
g7
tp637
Rp638
(I1
(I1
tp639
g14
I00
S'\x00\x00\x00\x00\x00\xad1@'
p640
tp641
bsg19
S'/home/noah/lab/vlc-localization/processing/shed-data/vlc/back_camera/distance/TX3K/1m/1m_1.jpg'
p642
sg21
S'TX3K, 1m, 1 Light Source'
p643
sg23
I0
sba(itest
Picture
p644
(dp645
g3
g4
(g5
(I0
tp646
g7
tp647
Rp648
(I1
(I1
tp649
g14
I00
S'\x00\x00\x00\x00\x00\xc0<\xc0'
p650
tp651
bsg19
S'/home/noah/lab/vlc-localization/processing/shed-data/vlc/back_camera/distance/TX3K/1m/1m_2.jpg'
p652
sg21
g643
sg23
I0
sba(itest
Picture
p653
(dp654
g3
g4
(g5
(I0
tp655
g7
tp656
Rp657
(I1
(I1
tp658
g14
I00
S'\x00\x00\x00\x00\x00\xad1@'
p659
tp660
bsg19
S'/home/noah/lab/vlc-localization/processing/shed-data/vlc/back_camera/distance/TX3K/1m/1m_3.jpg'
p661
sg21
g643
sg23
I0
sba(itest
Picture
p662
(dp663
g3
g4
(g5
(I0
tp664
g7
tp665
Rp666
(I1
(I1
tp667
g14
I00
S'\x00\x00\x00\x00\x00\xad1@'
p668
tp669
bsg19
S'/home/noah/lab/vlc-localization/processing/shed-data/vlc/back_camera/distance/TX3K/1m/1m_4.jpg'
p670
sg21
g643
sg23
I0
sba(itest
Picture
p671
(dp672
g3
g4
(g5
(I0
tp673
g7
tp674
Rp675
(I1
(I1
tp676
g14
I00
S'\x00\x00\x00\x00\x00\xc0<\xc0'
p677
tp678
bsg19
S'/home/noah/lab/vlc-localization/processing/shed-data/vlc/back_camera/distance/TX3K/1m/1m_5.jpg'
p679
sg21
g643
sg23
I0
sba(itest
Picture
p680
(dp681
g3
g4
(g5
(I0
tp682
g7
tp683
Rp684
(I1
(I1
tp685
g14
I00
S'\x00\x00\x00\x00\x00\xad1@'
p686
tp687
bsg19
S'/home/noah/lab/vlc-localization/processing/shed-data/vlc/back_camera/distance/TX3K/1m/1m_6.jpg'
p688
sg21
g643
sg23
I0
sba(itest
Picture
p689
(dp690
g3
g4
(g5
(I0
tp691
g7
tp692
Rp693
(I1
(I1
tp694
g14
I00
S'\x00\x00\x00\x00\x00\xad1@'
p695
tp696
bsg19
S'/home/noah/lab/vlc-localization/processing/shed-data/vlc/back_camera/distance/TX3K/1m/1m_7.jpg'
p697
sg21
g643
sg23
I0
sba(itest
Picture
p698
(dp699
g3
g4
(g5
(I0
tp700
g7
tp701
Rp702
(I1
(I1
tp703
g14
I00
S'\x00\x00\x00\x00\x00\xad1@'
p704
tp705
bsg19
S'/home/noah/lab/vlc-localization/processing/shed-data/vlc/back_camera/distance/TX3K/1m/1m_8.jpg'
p706
sg21
g643
sg23
I0
sba(itest
Picture
p707
(dp708
g3
g4
(g5
(I0
tp709
g7
tp710
Rp711
(I1
(I1
tp712
g14
I00
S'\x00\x00\x00\x00\x00\xad1@'
p713
tp714
bsg19
S'/home/noah/lab/vlc-localization/processing/shed-data/vlc/back_camera/distance/TX3K/1m/1m_9.jpg'
p715
sg21
g643
sg23
I0
sba(itest
Picture
p716
(dp717
g3
g4
(g5
(I0
tp718
g7
tp719
Rp720
(I1
(I1
tp721
g14
I00
S'\x00\x00\x00\x00@\xcbR\xc0'
p722
tp723
bsg19
S'/home/noah/lab/vlc-localization/processing/shed-data/vlc/back_camera/distance/TX3K/1.5m/1.5m_1.jpg'
p724
sg21
S'TX3K, 1.5m, 1 Light Source'
p725
sg23
I0
sba(itest
Picture
p726
(dp727
g3
g4
(g5
(I0
tp728
g7
tp729
Rp730
(I1
(I1
tp731
g14
I00
S'\x00\x00\x00\x00\x00\xad1@'
p732
tp733
bsg19
S'/home/noah/lab/vlc-localization/processing/shed-data/vlc/back_camera/distance/TX3K/1.5m/1.5m_2.jpg'
p734
sg21
g725
sg23
I0
sba(itest
Picture
p735
(dp736
g3
g4
(g5
(I0
tp737
g7
tp738
Rp739
(I1
(I1
tp740
g14
I00
S'\x00\x00\x00\x00\x00\xc0<\xc0'
p741
tp742
bsg19
S'/home/noah/lab/vlc-localization/processing/shed-data/vlc/back_camera/distance/TX3K/1.5m/1.5m_3.jpg'
p743
sg21
g725
sg23
I0
sba(itest
Picture
p744
(dp745
g3
g4
(g5
(I0
tp746
g7
tp747
Rp748
(I1
(I1
tp749
g14
I00
S'\x00\x00\x00\x00\x00\xad1@'
p750
tp751
bsg19
S'/home/noah/lab/vlc-localization/processing/shed-data/vlc/back_camera/distance/TX3K/1.5m/1.5m_4.jpg'
p752
sg21
g725
sg23
I0
sba(itest
Picture
p753
(dp754
g3
g4
(g5
(I0
tp755
g7
tp756
Rp757
(I1
(I1
tp758
g14
I00
S'\x00\x00\x00\x00\x00\xc0<\xc0'
p759
tp760
bsg19
S'/home/noah/lab/vlc-localization/processing/shed-data/vlc/back_camera/distance/TX3K/1.5m/1.5m_5.jpg'
p761
sg21
g725
sg23
I0
sba(itest
Picture
p762
(dp763
g3
g4
(g5
(I0
tp764
g7
tp765
Rp766
(I1
(I1
tp767
g14
I00
S'\x00\x00\x00\x00\x00\xad1@'
p768
tp769
bsg19
S'/home/noah/lab/vlc-localization/processing/shed-data/vlc/back_camera/distance/TX3K/1.5m/1.5m_6.jpg'
p770
sg21
g725
sg23
I0
sba(itest
Picture
p771
(dp772
g3
g4
(g5
(I0
tp773
g7
tp774
Rp775
(I1
(I1
tp776
g14
I00
S'\x00\x00\x00\x00\x00\xc0<\xc0'
p777
tp778
bsg19
S'/home/noah/lab/vlc-localization/processing/shed-data/vlc/back_camera/distance/TX3K/1.5m/1.5m_7.jpg'
p779
sg21
g725
sg23
I0
sba(itest
Picture
p780
(dp781
g3
g4
(g5
(I0
tp782
g7
tp783
Rp784
(I1
(I1
tp785
g14
I00
S'\x00\x00\x00\x00\x00\xc0<\xc0'
p786
tp787
bsg19
S'/home/noah/lab/vlc-localization/processing/shed-data/vlc/back_camera/distance/TX3K/1.5m/1.5m_8.jpg'
p788
sg21
g725
sg23
I0
sba(itest
Picture
p789
(dp790
g3
g4
(g5
(I0
tp791
g7
tp792
Rp793
(I1
(I1
tp794
g14
I00
S'\x00\x00\x00\x00\x00\xad1@'
p795
tp796
bsg19
S'/home/noah/lab/vlc-localization/processing/shed-data/vlc/back_camera/distance/TX3K/1.5m/1.5m_9.jpg'
p797
sg21
g725
sg23
I0
sba(itest
Picture
p798
(dp799
g3
g4
(g5
(I0
tp800
g7
tp801
Rp802
(I1
(I1
tp803
g14
I00
S'\x00\x00\x00\x00\x00\xad1@'
p804
tp805
bsg19
S'/home/noah/lab/vlc-localization/processing/shed-data/vlc/back_camera/distance/TX3K/2m/2m_1.jpg'
p806
sg21
S'TX3K, 2m, 1 Light Source'
p807
sg23
I0
sba(itest
Picture
p808
(dp809
g3
g4
(g5
(I0
tp810
g7
tp811
Rp812
(I1
(I1
tp813
g14
I00
S'\x00\x00\x00\x00\x00\xc0<\xc0'
p814
tp815
bsg19
S'/home/noah/lab/vlc-localization/processing/shed-data/vlc/back_camera/distance/TX3K/2m/2m_2.jpg'
p816
sg21
g807
sg23
I0
sba(itest
Picture
p817
(dp818
g3
g4
(g5
(I0
tp819
g7
tp820
Rp821
(I1
(I1
tp822
g14
I00
S'\x00\x00\x00\x00\x00\xad1@'
p823
tp824
bsg19
S'/home/noah/lab/vlc-localization/processing/shed-data/vlc/back_camera/distance/TX3K/2m/2m_3.jpg'
p825
sg21
g807
sg23
I0
sba(itest
Picture
p826
(dp827
g3
g4
(g5
(I0
tp828
g7
tp829
Rp830
(I1
(I1
tp831
g14
I00
S'\x00\x00\x00\x00\x00\xc0<\xc0'
p832
tp833
bsg19
S'/home/noah/lab/vlc-localization/processing/shed-data/vlc/back_camera/distance/TX3K/2m/2m_4.jpg'
p834
sg21
g807
sg23
I0
sba(itest
Picture
p835
(dp836
g3
g4
(g5
(I0
tp837
g7
tp838
Rp839
(I1
(I1
tp840
g14
I00
S'\x00\x00\x00\x00\x00\xad1@'
p841
tp842
bsg19
S'/home/noah/lab/vlc-localization/processing/shed-data/vlc/back_camera/distance/TX3K/2m/2m_5.jpg'
p843
sg21
g807
sg23
I0
sba(itest
Picture
p844
(dp845
g3
g4
(g5
(I0
tp846
g7
tp847
Rp848
(I1
(I1
tp849
g14
I00
S'\x00\x00\x00\x00\x00\xc0<\xc0'
p850
tp851
bsg19
S'/home/noah/lab/vlc-localization/processing/shed-data/vlc/back_camera/distance/TX3K/2m/2m_6.jpg'
p852
sg21
g807
sg23
I0
sba(itest
Picture
p853
(dp854
g3
g4
(g5
(I0
tp855
g7
tp856
Rp857
(I1
(I1
tp858
g14
I00
S'\x00\x00\x00\x00\x00\xad1@'
p859
tp860
bsg19
S'/home/noah/lab/vlc-localization/processing/shed-data/vlc/back_camera/distance/TX3K/2m/2m_7.jpg'
p861
sg21
g807
sg23
I0
sba(itest
Picture
p862
(dp863
g3
g4
(g5
(I0
tp864
g7
tp865
Rp866
(I1
(I1
tp867
g14
I00
S'\x00\x00\x00\x00\x00\xad1@'
p868
tp869
bsg19
S'/home/noah/lab/vlc-localization/processing/shed-data/vlc/back_camera/distance/TX3K/2m/2m_8.jpg'
p870
sg21
g807
sg23
I0
sba(itest
Picture
p871
(dp872
g3
g4
(g5
(I0
tp873
g7
tp874
Rp875
(I1
(I1
tp876
g14
I00
S'\x00\x00\x00\x00\x00\xad1@'
p877
tp878
bsg19
S'/home/noah/lab/vlc-localization/processing/shed-data/vlc/back_camera/distance/TX3K/2m/2m_9.jpg'
p879
sg21
g807
sg23
I0
sba(itest
Picture
p880
(dp881
g3
g4
(g5
(I0
tp882
g7
tp883
Rp884
(I1
(I1
tp885
g14
I00
S'\x00\x00\x00\x00\x00\xad1@'
p886
tp887
bsg19
S'/home/noah/lab/vlc-localization/processing/shed-data/vlc/back_camera/distance/TX3K/2.5m/2.5m_1.jpg'
p888
sg21
S'TX3K, 2.5m, 1 Light Source'
p889
sg23
I0
sba(itest
Picture
p890
(dp891
g3
g4
(g5
(I0
tp892
g7
tp893
Rp894
(I1
(I1
tp895
g14
I00
S'\x00\x00\x00\x00\x00\xad1@'
p896
tp897
bsg19
S'/home/noah/lab/vlc-localization/processing/shed-data/vlc/back_camera/distance/TX3K/2.5m/2.5m_2.jpg'
p898
sg21
g889
sg23
I0
sba(itest
Picture
p899
(dp900
g3
g4
(g5
(I0
tp901
g7
tp902
Rp903
(I1
(I1
tp904
g14
I00
S'\x00\x00\x00\x00\x00\xc0<\xc0'
p905
tp906
bsg19
S'/home/noah/lab/vlc-localization/processing/shed-data/vlc/back_camera/distance/TX3K/2.5m/2.5m_3.jpg'
p907
sg21
g889
sg23
I0
sba(itest
Picture
p908
(dp909
g3
g4
(g5
(I0
tp910
g7
tp911
Rp912
(I1
(I1
tp913
g14
I00
S'\x00\x00\x00\x00\x00\xad1@'
p914
tp915
bsg19
S'/home/noah/lab/vlc-localization/processing/shed-data/vlc/back_camera/distance/TX3K/2.5m/2.5m_4.jpg'
p916
sg21
g889
sg23
I0
sba(itest
Picture
p917
(dp918
g3
g4
(g5
(I0
tp919
g7
tp920
Rp921
(I1
(I1
tp922
g14
I00
S'\x00\x00\x00\x00\x00\xad1@'
p923
tp924
bsg19
S'/home/noah/lab/vlc-localization/processing/shed-data/vlc/back_camera/distance/TX3K/2.5m/2.5m_5.jpg'
p925
sg21
g889
sg23
I0
sba(itest
Picture
p926
(dp927
g3
g4
(g5
(I0
tp928
g7
tp929
Rp930
(I1
(I1
tp931
g14
I00
S'\x00\x00\x00\x00\x80\x06P@'
p932
tp933
bsg19
S'/home/noah/lab/vlc-localization/processing/shed-data/vlc/back_camera/distance/TX3K/2.5m/2.5m_6.jpg'
p934
sg21
g889
sg23
I0
sba(itest
Picture
p935
(dp936
g3
g4
(g5
(I0
tp937
g7
tp938
Rp939
(I1
(I1
tp940
g14
I00
S'\x00\x00\x00\x00\x00\xc0<\xc0'
p941
tp942
bsg19
S'/home/noah/lab/vlc-localization/processing/shed-data/vlc/back_camera/distance/TX3K/2.5m/2.5m_7.jpg'
p943
sg21
g889
sg23
I0
sba(itest
Picture
p944
(dp945
g3
g4
(g5
(I0
tp946
g7
tp947
Rp948
(I1
(I1
tp949
g14
I00
S'\x00\x00\x00\x00@\xcbR\xc0'
p950
tp951
bsg19
S'/home/noah/lab/vlc-localization/processing/shed-data/vlc/back_camera/distance/TX3K/2.5m/2.5m_8.jpg'
p952
sg21
g889
sg23
I0
sba(itest
Picture
p953
(dp954
g3
g4
(g5
(I0
tp955
g7
tp956
Rp957
(I1
(I1
tp958
g14
I00
S'\x00\x00\x00\x00\x00\xad1@'
p959
tp960
bsg19
S'/home/noah/lab/vlc-localization/processing/shed-data/vlc/back_camera/distance/TX3K/2.5m/2.5m_9.jpg'
p961
sg21
g889
sg23
I0
sba(itest
Picture
p962
(dp963
g3
g4
(g5
(I0
tp964
g7
tp965
Rp966
(I1
(I1
tp967
g14
I00
S'\x00\x00\x00\x00\xc0\xa1[@'
p968
tp969
bsg19
S'/home/noah/lab/vlc-localization/processing/shed-data/vlc/back_camera/distance/TX3K/3m/3m_1.jpg'
p970
sg21
S'TX3K, 3m, 1 Light Source'
p971
sg23
I0
sba(itest
Picture
p972
(dp973
g3
g4
(g5
(I0
tp974
g7
tp975
Rp976
(I1
(I1
tp977
g14
I00
S'\x00\x00\x00\x00\x00\xad1@'
p978
tp979
bsg19
S'/home/noah/lab/vlc-localization/processing/shed-data/vlc/back_camera/distance/TX3K/3m/3m_2.jpg'
p980
sg21
g971
sg23
I0
sba(itest
Picture
p981
(dp982
g3
g4
(g5
(I0
tp983
g7
tp984
Rp985
(I1
(I1
tp986
g14
I00
S'\x00\x00\x00\x00@\xcbR\xc0'
p987
tp988
bsg19
S'/home/noah/lab/vlc-localization/processing/shed-data/vlc/back_camera/distance/TX3K/3m/3m_3.jpg'
p989
sg21
g971
sg23
I0
sba(itest
Picture
p990
(dp991
g3
g4
(g5
(I0
tp992
g7
tp993
Rp994
(I1
(I1
tp995
g14
I00
S'\x00\x00\x00\x00\x00\xad1@'
p996
tp997
bsg19
S'/home/noah/lab/vlc-localization/processing/shed-data/vlc/back_camera/distance/TX3K/3m/3m_4.jpg'
p998
sg21
g971
sg23
I0
sba(itest
Picture
p999
(dp1000
g3
g4
(g5
(I0
tp1001
g7
tp1002
Rp1003
(I1
(I1
tp1004
g14
I00
S'\x00\x00\x00\x00\xe0\x00e\xc0'
p1005
tp1006
bsg19
S'/home/noah/lab/vlc-localization/processing/shed-data/vlc/back_camera/distance/TX3K/3m/3m_5.jpg'
p1007
sg21
g971
sg23
I0
sba(itest
Picture
p1008
(dp1009
g3
g4
(g5
(I0
tp1010
g7
tp1011
Rp1012
(I1
(I1
tp1013
g14
I00
S'\x00\x00\x00\x00\xc0\xa1[@'
p1014
tp1015
bsg19
S'/home/noah/lab/vlc-localization/processing/shed-data/vlc/back_camera/distance/TX3K/3m/3m_6.jpg'
p1016
sg21
g971
sg23
I0
sba(itest
Picture
p1017
(dp1018
g3
g4
(g5
(I0
tp1019
g7
tp1020
Rp1021
(I1
(I1
tp1022
g14
I00
S'\x00\x00\x00\x00\x00\xad1@'
p1023
tp1024
bsg19
S'/home/noah/lab/vlc-localization/processing/shed-data/vlc/back_camera/distance/TX3K/3m/3m_7.jpg'
p1025
sg21
g971
sg23
I0
sba(itest
Picture
p1026
(dp1027
g3
g4
(g5
(I0
tp1028
g7
tp1029
Rp1030
(I1
(I1
tp1031
g14
I00
S'\x00\x00\x00\x00\x80\x06P@'
p1032
tp1033
bsg19
S'/home/noah/lab/vlc-localization/processing/shed-data/vlc/back_camera/distance/TX3K/3m/3m_8.jpg'
p1034
sg21
g971
sg23
I0
sba(itest
Picture
p1035
(dp1036
g3
g4
(g5
(I0
tp1037
g7
tp1038
Rp1039
(I1
(I1
tp1040
g14
I00
S'\x00\x00\x00\x00@\xcbR\xc0'
p1041
tp1042
bsg19
S'/home/noah/lab/vlc-localization/processing/shed-data/vlc/back_camera/distance/TX3K/3m/3m_9.jpg'
p1043
sg21
g971
sg23
I0
sba(itest
Picture
p1044
(dp1045
g3
g4
(g5
(I0
tp1046
g7
tp1047
Rp1048
(I1
(I1
tp1049
g14
I00
S'\x00\x00\x00\x00\x80\x06P@'
p1050
tp1051
bsg19
S'/home/noah/lab/vlc-localization/processing/shed-data/vlc/back_camera/distance/TX3K/3.5m/3.5m_1.jpg'
p1052
sg21
S'TX3K, 3.5m, 1 Light Source'
p1053
sg23
I0
sba(itest
Picture
p1054
(dp1055
g3
g4
(g5
(I0
tp1056
g7
tp1057
Rp1058
(I1
(I1
tp1059
g14
I00
S'\x00\x00\x00\x00\x00\xad1@'
p1060
tp1061
bsg19
S'/home/noah/lab/vlc-localization/processing/shed-data/vlc/back_camera/distance/TX3K/3.5m/3.5m_2.jpg'
p1062
sg21
g1053
sg23
I0
sba(itest
Picture
p1063
(dp1064
g3
g4
(g5
(I0
tp1065
g7
tp1066
Rp1067
(I1
(I1
tp1068
g14
I00
S'\x00\x00\x00\x00@\xcbR\xc0'
p1069
tp1070
bsg19
S'/home/noah/lab/vlc-localization/processing/shed-data/vlc/back_camera/distance/TX3K/3.5m/3.5m_3.jpg'
p1071
sg21
g1053
sg23
I0
sba(itest
Picture
p1072
(dp1073
g3
g4
(g5
(I0
tp1074
g7
tp1075
Rp1076
(I1
(I1
tp1077
g14
I00
S'\x00\x00\x00\x00\x80\x06P@'
p1078
tp1079
bsg19
S'/home/noah/lab/vlc-localization/processing/shed-data/vlc/back_camera/distance/TX3K/3.5m/3.5m_4.jpg'
p1080
sg21
g1053
sg23
I0
sba(itest
Picture
p1081
(dp1082
g3
g4
(g5
(I0
tp1083
g7
tp1084
Rp1085
(I1
(I1
tp1086
g14
I00
S'\x00\x00\x00\x00\xc0\xa1[@'
p1087
tp1088
bsg19
S'/home/noah/lab/vlc-localization/processing/shed-data/vlc/back_camera/distance/TX3K/3.5m/3.5m_6.jpg'
p1089
sg21
g1053
sg23
I0
sba(itest
Picture
p1090
(dp1091
g3
g4
(g5
(I0
tp1092
g7
tp1093
Rp1094
(I1
(I1
tp1095
g14
I00
S'\x00\x00\x00\x00\xc0\xa1[@'
p1096
tp1097
bsg19
S'/home/noah/lab/vlc-localization/processing/shed-data/vlc/back_camera/distance/TX3K/3.5m/3.5m_7.jpg'
p1098
sg21
g1053
sg23
I0
sba(itest
Picture
p1099
(dp1100
g3
g4
(g5
(I0
tp1101
g7
tp1102
Rp1103
(I1
(I1
tp1104
g14
I00
S'\x00\x00\x00\x00\x80f^\xc0'
p1105
tp1106
bsg19
S'/home/noah/lab/vlc-localization/processing/shed-data/vlc/back_camera/distance/TX3K/3.5m/3.5m_8.jpg'
p1107
sg21
g1053
sg23
I0
sba(itest
Picture
p1108
(dp1109
g3
g4
(g5
(I0
tp1110
g7
tp1111
Rp1112
(I1
(I1
tp1113
g14
I00
S'\x00\x00\x00\x00\x00\xad1@'
p1114
tp1115
bsg19
S'/home/noah/lab/vlc-localization/processing/shed-data/vlc/back_camera/distance/TX3K/3.5m/3.5m_9.jpg'
p1116
sg21
g1053
sg23
I0
sba.